; Function Attrs: mustprogress uwtable
define dso_local void @_ZN13b3OpenCLUtils15getPlatformInfoEP15_cl_platform_idP20b3OpenCLPlatformInfo(ptr noundef %0, ptr noundef %1) local_unnamed_addr #0 align 2 {
  %3 = load ptr, ptr @__clewGetPlatformInfo, align 8, !tbaa !8
  %4 = tail call i32 %3(ptr noundef %0, i32 noundef 2307, i64 noundef 1024, ptr noundef %1, ptr noundef null)
  %.not = icmp eq i32 %4, 0
  br i1 %.not, label %7, label %5

5:                                                ; preds = %2
  %6 = tail call i32 (ptr, ...) @printf(ptr noundef nonnull dereferenceable(1) @.str.10, i32 noundef %4)
  br label %7

7:                                                ; preds = %5, %2
  %8 = load ptr, ptr @__clewGetPlatformInfo, align 8, !tbaa !8
  %9 = getelementptr inbounds nuw i8, ptr %1, i64 1024
  %10 = tail call i32 %8(ptr noundef %0, i32 noundef 2306, i64 noundef 1024, ptr noundef nonnull %9, ptr noundef null)
  %.not13 = icmp eq i32 %10, 0
  br i1 %.not13, label %13, label %11

11:                                               ; preds = %7
  %12 = tail call i32 (ptr, ...) @printf(ptr noundef nonnull dereferenceable(1) @.str.10, i32 noundef %10)
  br label %13

13:                                               ; preds = %11, %7
  %14 = load ptr, ptr @__clewGetPlatformInfo, align 8, !tbaa !8
  %15 = getelementptr inbounds nuw i8, ptr %1, i64 2048
  %16 = tail call i32 %14(ptr noundef %0, i32 noundef 2305, i64 noundef 1024, ptr noundef nonnull %15, ptr noundef null)
  %.not14 = icmp eq i32 %16, 0
  br i1 %.not14, label %19, label %17

17:                                               ; preds = %13
  %18 = tail call i32 (ptr, ...) @printf(ptr noundef nonnull dereferenceable(1) @.str.10, i32 noundef %16)
  br label %19

19:                                               ; preds = %17, %13
  ret void
}